target datalayout = "e-m:e-p270:32:32-p271:32:32-p272:64:64-i64:64-i128:128-f80:128-n8:16:32:64-S128"
target triple = "x86_64-pc-linux-gnu"

%"class.clang::QualType" = type { %"class.llvm::PointerIntPair.135" }
%"class.llvm::PointerIntPair.135" = type { %"struct.llvm::detail::PunnedPointer.136" }
%"struct.llvm::detail::PunnedPointer.136" = type { [8 x i8] }
%"class.clang::SourceLocation" = type { i32 }
%"class.llvm::FoldingSetBase::Node" = type { ptr }
%"class.clang::TypeLoc" = type { ptr, ptr }
%"class.clang::UnqualTypeLoc" = type { %"class.clang::TypeLoc" }
%"class.clang::DependentSizedExtVectorTypeLoc" = type { %"class.clang::ConcreteTypeLoc.568" }
%"class.clang::ConcreteTypeLoc.568" = type { %"class.clang::UnqualTypeLoc" }
%"class.clang::ExtQualsTypeCommonBase" = type { ptr, %"class.clang::QualType" }
%union.anon.614 = type { %"class.clang::Type::FunctionTypeBitfields" }
%"class.clang::Type::FunctionTypeBitfields" = type { i64 }
%"class.clang::Type.base" = type { %"class.clang::ExtQualsTypeCommonBase", %union.anon.614 }
%"class.clang::DependentSizedExtVectorType" = type <{ %"class.clang::Type.base", %"class.llvm::FoldingSetBase::Node", ptr, %"class.clang::QualType", %"class.clang::SourceLocation", [12 x i8] }>

; Function Attrs: mustprogress nounwind uwtable
define linkonce_odr hidden noundef ptr @_ZN4llvm16cast_convert_valIN5clang27DependentSizedExtVectorTypeEPKNS1_4TypeES5_E4doitES5_(ptr noundef %0) #0 comdat align 2 {
  %2 = alloca ptr, align 8
  store ptr %0, ptr %2, align 8
  %3 = load ptr, ptr %2, align 8
  ret ptr %3
}

; Function Attrs: mustprogress nounwind uwtable
define internal noundef zeroext i1 @_ZN5clang19RecursiveASTVisitorIN12_GLOBAL__N_110APICheckerEE9VisitTypeEPNS_4TypeE(ptr noundef nonnull align 1 dereferenceable(1) %0, ptr noundef %1) #0 align 2 {
  %3 = alloca ptr, align 8
  %4 = alloca ptr, align 8
  store ptr %0, ptr %3, align 8
  store ptr %1, ptr %4, align 8
  ret i1 true
}

; Function Attrs: mustprogress nounwind uwtable
define linkonce_odr hidden noundef ptr @_ZN4llvm8CastInfoIN5clang27DependentSizedExtVectorTypeEPKNS1_4TypeEvE6doCastERKS5_(ptr noundef nonnull align 8 dereferenceable(8) %0) #0 comdat align 2 {
  %2 = alloca ptr, align 8
  store ptr %0, ptr %2, align 8
  %3 = load ptr, ptr %2, align 8
  %4 = load ptr, ptr %3, align 8
  %5 = call noundef ptr @_ZN4llvm16cast_convert_valIN5clang27DependentSizedExtVectorTypeEPKNS1_4TypeES5_E4doitES5_(ptr noundef %4)
  ret ptr %5
}

; Function Attrs: mustprogress nounwind uwtable
define internal noundef zeroext i1 @_ZN5clang19RecursiveASTVisitorIN12_GLOBAL__N_110APICheckerEE12VisitTypeLocENS_7TypeLocE(ptr noundef nonnull align 1 dereferenceable(1) %0, ptr %1, ptr %2) #0 align 2 {
  %4 = alloca %"class.clang::TypeLoc", align 8
  %5 = alloca ptr, align 8
  %6 = getelementptr inbounds nuw { ptr, ptr }, ptr %4, i32 0, i32 0
  store ptr %1, ptr %6, align 8
  %7 = getelementptr inbounds nuw { ptr, ptr }, ptr %4, i32 0, i32 1
  store ptr %2, ptr %7, align 8
  store ptr %0, ptr %5, align 8
  ret i1 true
}

; Function Attrs: mustprogress nounwind uwtable
define internal noundef zeroext i1 @_ZN5clang19RecursiveASTVisitorIN12_GLOBAL__N_110APICheckerEE32VisitDependentSizedExtVectorTypeEPNS_27DependentSizedExtVectorTypeE(ptr noundef nonnull align 1 dereferenceable(1) %0, ptr noundef %1) #0 align 2 {
  %3 = alloca ptr, align 8
  %4 = alloca ptr, align 8
  store ptr %0, ptr %3, align 8
  store ptr %1, ptr %4, align 8
  ret i1 true
}

; Function Attrs: mustprogress nounwind uwtable
define internal noundef zeroext i1 @_ZN5clang19RecursiveASTVisitorIN12_GLOBAL__N_110APICheckerEE14WalkUpFromTypeEPNS_4TypeE(ptr noundef nonnull align 1 dereferenceable(1) %0, ptr noundef %1) #0 align 2 {
  %3 = alloca ptr, align 8
  %4 = alloca ptr, align 8
  store ptr %0, ptr %3, align 8
  store ptr %1, ptr %4, align 8
  %5 = load ptr, ptr %3, align 8
  %6 = call noundef nonnull align 8 dereferenceable(48) ptr @_ZN5clang19RecursiveASTVisitorIN12_GLOBAL__N_110APICheckerEE10getDerivedEv(ptr noundef nonnull align 1 dereferenceable(1) %5)
  %7 = load ptr, ptr %4, align 8
  %8 = call noundef zeroext i1 @_ZN5clang19RecursiveASTVisitorIN12_GLOBAL__N_110APICheckerEE9VisitTypeEPNS_4TypeE(ptr noundef nonnull align 1 dereferenceable(1) %6, ptr noundef %7)
  ret i1 %8
}

; Function Attrs: mustprogress nounwind uwtable
define linkonce_odr hidden noundef ptr @_ZN4llvm4castIN5clang27DependentSizedExtVectorTypeEKNS1_4TypeEEEDcPT0_(ptr noundef %0) #0 comdat {
  %2 = alloca ptr, align 8
  store ptr %0, ptr %2, align 8
  %3 = call noundef ptr @_ZN4llvm8CastInfoIN5clang27DependentSizedExtVectorTypeEPKNS1_4TypeEvE6doCastERKS5_(ptr noundef nonnull align 8 dereferenceable(8) %2)
  ret ptr %3
}

; Function Attrs: mustprogress nounwind uwtable
define linkonce_odr hidden noundef ptr @_ZNK5clang13UnqualTypeLoc10getTypePtrEv(ptr noundef nonnull align 8 dereferenceable(16) %0) #0 comdat align 2 {
  %2 = alloca ptr, align 8
  store ptr %0, ptr %2, align 8
  %3 = load ptr, ptr %2, align 8
  %4 = getelementptr inbounds nuw %"class.clang::TypeLoc", ptr %3, i32 0, i32 0
  %5 = load ptr, ptr %4, align 8
  ret ptr %5
}

; Function Attrs: mustprogress nounwind uwtable
define internal noundef zeroext i1 @_ZN5clang19RecursiveASTVisitorIN12_GLOBAL__N_110APICheckerEE35VisitDependentSizedExtVectorTypeLocENS_30DependentSizedExtVectorTypeLocE(ptr noundef nonnull align 1 dereferenceable(1) %0, ptr %1, ptr %2) #0 align 2 {
  %4 = alloca %"class.clang::DependentSizedExtVectorTypeLoc", align 8
  %5 = alloca ptr, align 8
  %6 = getelementptr inbounds nuw { ptr, ptr }, ptr %4, i32 0, i32 0
  store ptr %1, ptr %6, align 8
  %7 = getelementptr inbounds nuw { ptr, ptr }, ptr %4, i32 0, i32 1
  store ptr %2, ptr %7, align 8
  store ptr %0, ptr %5, align 8
  ret i1 true
}

; Function Attrs: mustprogress nounwind uwtable
define internal noundef zeroext i1 @_ZN5clang19RecursiveASTVisitorIN12_GLOBAL__N_110APICheckerEE17WalkUpFromTypeLocENS_7TypeLocE(ptr noundef nonnull align 1 dereferenceable(1) %0, ptr %1, ptr %2) #0 align 2 {
  %4 = alloca %"class.clang::TypeLoc", align 8
  %5 = alloca ptr, align 8
  %6 = alloca %"class.clang::TypeLoc", align 8
  %7 = getelementptr inbounds nuw { ptr, ptr }, ptr %4, i32 0, i32 0
  store ptr %1, ptr %7, align 8
  %8 = getelementptr inbounds nuw { ptr, ptr }, ptr %4, i32 0, i32 1
  store ptr %2, ptr %8, align 8
  store ptr %0, ptr %5, align 8
  %9 = load ptr, ptr %5, align 8
  %10 = call noundef nonnull align 8 dereferenceable(48) ptr @_ZN5clang19RecursiveASTVisitorIN12_GLOBAL__N_110APICheckerEE10getDerivedEv(ptr noundef nonnull align 1 dereferenceable(1) %9)
  call void @llvm.memcpy.p0.p0.i64(ptr align 8 %6, ptr align 8 %4, i64 16, i1 false)
  %11 = getelementptr inbounds nuw { ptr, ptr }, ptr %6, i32 0, i32 0
  %12 = load ptr, ptr %11, align 8
  %13 = getelementptr inbounds nuw { ptr, ptr }, ptr %6, i32 0, i32 1
  %14 = load ptr, ptr %13, align 8
  %15 = call noundef zeroext i1 @_ZN5clang19RecursiveASTVisitorIN12_GLOBAL__N_110APICheckerEE12VisitTypeLocENS_7TypeLocE(ptr noundef nonnull align 1 dereferenceable(1) %10, ptr %12, ptr %14)
  ret i1 %15
}

; Function Attrs: mustprogress nounwind uwtable
define linkonce_odr hidden i64 @_ZNK5clang27DependentSizedExtVectorType14getElementTypeEv(ptr noundef nonnull align 16 dereferenceable(52) %0) #0 comdat align 2 {
  %2 = alloca %"class.clang::QualType", align 8
  %3 = alloca ptr, align 8
  store ptr %0, ptr %3, align 8
  %4 = load ptr, ptr %3, align 8
  %5 = getelementptr inbounds nuw %"class.clang::DependentSizedExtVectorType", ptr %4, i32 0, i32 3
  call void @llvm.memcpy.p0.p0.i64(ptr align 8 %2, ptr align 8 %5, i64 8, i1 false)
  %6 = getelementptr inbounds nuw %"class.clang::QualType", ptr %2, i32 0, i32 0
  %7 = getelementptr inbounds nuw %"class.llvm::PointerIntPair.135", ptr %6, i32 0, i32 0
  %8 = getelementptr inbounds nuw %"struct.llvm::detail::PunnedPointer.136", ptr %7, i32 0, i32 0
  %9 = load i64, ptr %8, align 8
  ret i64 %9
}

; Function Attrs: mustprogress nounwind uwtable
define linkonce_odr hidden noundef ptr @_ZNK5clang27DependentSizedExtVectorType11getSizeExprEv(ptr noundef nonnull align 16 dereferenceable(52) %0) #0 comdat align 2 {
  %2 = alloca ptr, align 8
  store ptr %0, ptr %2, align 8
  %3 = load ptr, ptr %2, align 8
  %4 = getelementptr inbounds nuw %"class.clang::DependentSizedExtVectorType", ptr %3, i32 0, i32 2
  %5 = load ptr, ptr %4, align 16
  ret ptr %5
}

; Function Attrs: mustprogress nounwind uwtable
define internal noundef zeroext i1 @_ZN5clang19RecursiveASTVisitorIN12_GLOBAL__N_110APICheckerEE37WalkUpFromDependentSizedExtVectorTypeEPNS_27DependentSizedExtVectorTypeE(ptr noundef nonnull align 1 dereferenceable(1) %0, ptr noundef %1) #0 align 2 {
  %3 = alloca i1, align 1
  %4 = alloca ptr, align 8
  %5 = alloca ptr, align 8
  store ptr %0, ptr %4, align 8
  store ptr %1, ptr %5, align 8
  %6 = load ptr, ptr %4, align 8
  br label %7

7:                                                ; preds = %2
  %8 = call noundef nonnull align 8 dereferenceable(48) ptr @_ZN5clang19RecursiveASTVisitorIN12_GLOBAL__N_110APICheckerEE10getDerivedEv(ptr noundef nonnull align 1 dereferenceable(1) %6)
  %9 = load ptr, ptr %5, align 8
  %10 = call noundef zeroext i1 @_ZN5clang19RecursiveASTVisitorIN12_GLOBAL__N_110APICheckerEE14WalkUpFromTypeEPNS_4TypeE(ptr noundef nonnull align 1 dereferenceable(1) %8, ptr noundef %9)
  br i1 %10, label %12, label %11

11:                                               ; preds = %7
  store i1 false, ptr %3, align 1
  br label %21

12:                                               ; preds = %7
  br label %13

13:                                               ; preds = %12
  br label %14

14:                                               ; preds = %13
  %15 = call noundef nonnull align 8 dereferenceable(48) ptr @_ZN5clang19RecursiveASTVisitorIN12_GLOBAL__N_110APICheckerEE10getDerivedEv(ptr noundef nonnull align 1 dereferenceable(1) %6)
  %16 = load ptr, ptr %5, align 8
  %17 = call noundef zeroext i1 @_ZN5clang19RecursiveASTVisitorIN12_GLOBAL__N_110APICheckerEE32VisitDependentSizedExtVectorTypeEPNS_27DependentSizedExtVectorTypeE(ptr noundef nonnull align 1 dereferenceable(1) %15, ptr noundef %16)
  br i1 %17, label %19, label %18

18:                                               ; preds = %14
  store i1 false, ptr %3, align 1
  br label %21

19:                                               ; preds = %14
  br label %20

20:                                               ; preds = %19
  store i1 true, ptr %3, align 1
  br label %21

21:                                               ; preds = %20, %18, %11
  %22 = load i1, ptr %3, align 1
  ret i1 %22
}

; Function Attrs: mustprogress nounwind uwtable
define linkonce_odr hidden noundef ptr @_ZNK5clang15ConcreteTypeLocINS_13UnqualTypeLocENS_30DependentSizedExtVectorTypeLocENS_27DependentSizedExtVectorTypeENS_17VectorTypeLocInfoEE10getTypePtrEv(ptr noundef nonnull align 8 dereferenceable(16) %0) #0 comdat align 2 {
  %2 = alloca ptr, align 8
  store ptr %0, ptr %2, align 8
  %3 = load ptr, ptr %2, align 8
  %4 = call noundef ptr @_ZNK5clang13UnqualTypeLoc10getTypePtrEv(ptr noundef nonnull align 8 dereferenceable(16) %3)
  %5 = call noundef ptr @_ZN4llvm4castIN5clang27DependentSizedExtVectorTypeEKNS1_4TypeEEEDcPT0_(ptr noundef %4)
  ret ptr %5
}

; Function Attrs: mustprogress nounwind uwtable
define internal noundef zeroext i1 @_ZNK5clang19RecursiveASTVisitorIN12_GLOBAL__N_110APICheckerEE25shouldWalkTypesOfTypeLocsEv(ptr noundef nonnull align 1 dereferenceable(1) %0) #0 align 2 {
  %2 = alloca ptr, align 8
  store ptr %0, ptr %2, align 8
  ret i1 true
}

; Function Attrs: mustprogress nounwind uwtable
define internal noundef zeroext i1 @_ZN5clang19RecursiveASTVisitorIN12_GLOBAL__N_110APICheckerEE40WalkUpFromDependentSizedExtVectorTypeLocENS_30DependentSizedExtVectorTypeLocE(ptr noundef nonnull align 1 dereferenceable(1) %0, ptr %1, ptr %2) #0 align 2 {
  %4 = alloca i1, align 1
  %5 = alloca %"class.clang::DependentSizedExtVectorTypeLoc", align 8
  %6 = alloca ptr, align 8
  %7 = alloca %"class.clang::TypeLoc", align 8
  %8 = alloca %"class.clang::DependentSizedExtVectorTypeLoc", align 8
  %9 = getelementptr inbounds nuw { ptr, ptr }, ptr %5, i32 0, i32 0
  store ptr %1, ptr %9, align 8
  %10 = getelementptr inbounds nuw { ptr, ptr }, ptr %5, i32 0, i32 1
  store ptr %2, ptr %10, align 8
  store ptr %0, ptr %6, align 8
  %11 = load ptr, ptr %6, align 8
  br label %12

12:                                               ; preds = %3
  %13 = call noundef nonnull align 8 dereferenceable(48) ptr @_ZN5clang19RecursiveASTVisitorIN12_GLOBAL__N_110APICheckerEE10getDerivedEv(ptr noundef nonnull align 1 dereferenceable(1) %11)
  call void @llvm.memcpy.p0.p0.i64(ptr align 8 %7, ptr align 8 %5, i64 16, i1 false)
  %14 = getelementptr inbounds nuw { ptr, ptr }, ptr %7, i32 0, i32 0
  %15 = load ptr, ptr %14, align 8
  %16 = getelementptr inbounds nuw { ptr, ptr }, ptr %7, i32 0, i32 1
  %17 = load ptr, ptr %16, align 8
  %18 = call noundef zeroext i1 @_ZN5clang19RecursiveASTVisitorIN12_GLOBAL__N_110APICheckerEE17WalkUpFromTypeLocENS_7TypeLocE(ptr noundef nonnull align 1 dereferenceable(1) %13, ptr %15, ptr %17)
  br i1 %18, label %20, label %19

19:                                               ; preds = %12
  store i1 false, ptr %4, align 1
  br label %32

20:                                               ; preds = %12
  br label %21

21:                                               ; preds = %20
  br label %22

22:                                               ; preds = %21
  %23 = call noundef nonnull align 8 dereferenceable(48) ptr @_ZN5clang19RecursiveASTVisitorIN12_GLOBAL__N_110APICheckerEE10getDerivedEv(ptr noundef nonnull align 1 dereferenceable(1) %11)
  call void @llvm.memcpy.p0.p0.i64(ptr align 8 %8, ptr align 8 %5, i64 16, i1 false)
  %24 = getelementptr inbounds nuw { ptr, ptr }, ptr %8, i32 0, i32 0
  %25 = load ptr, ptr %24, align 8
  %26 = getelementptr inbounds nuw { ptr, ptr }, ptr %8, i32 0, i32 1
  %27 = load ptr, ptr %26, align 8
  %28 = call noundef zeroext i1 @_ZN5clang19RecursiveASTVisitorIN12_GLOBAL__N_110APICheckerEE35VisitDependentSizedExtVectorTypeLocENS_30DependentSizedExtVectorTypeLocE(ptr noundef nonnull align 1 dereferenceable(1) %23, ptr %25, ptr %27)
  br i1 %28, label %30, label %29

29:                                               ; preds = %22
  store i1 false, ptr %4, align 1
  br label %32

30:                                               ; preds = %22
  br label %31

31:                                               ; preds = %30
  store i1 true, ptr %4, align 1
  br label %32

32:                                               ; preds = %31, %29, %19
  %33 = load i1, ptr %4, align 1
  ret i1 %33
}

; Function Attrs: mustprogress nounwind uwtable
define internal noundef zeroext i1 @_ZNK5clang19RecursiveASTVisitorIN12_GLOBAL__N_110APICheckerEE23shouldTraversePostOrderEv(ptr noundef nonnull align 1 dereferenceable(1) %0) #0 align 2 {
  %2 = alloca ptr, align 8
  store ptr %0, ptr %2, align 8
  ret i1 false
}

; Function Attrs: mustprogress nounwind uwtable
define internal noundef nonnull align 8 dereferenceable(48) ptr @_ZN5clang19RecursiveASTVisitorIN12_GLOBAL__N_110APICheckerEE10getDerivedEv(ptr noundef nonnull align 1 dereferenceable(1) %0) #0 align 2 {
  %2 = alloca ptr, align 8
  store ptr %0, ptr %2, align 8
  %3 = load ptr, ptr %2, align 8
  ret ptr %3
}

; Function Attrs: mustprogress nounwind uwtable
define internal noundef zeroext i1 @_ZN5clang19RecursiveASTVisitorIN12_GLOBAL__N_110APICheckerEE38TraverseDependentSizedExtVectorTypeLocENS_30DependentSizedExtVectorTypeLocE(ptr noundef nonnull align 1 dereferenceable(1) %0, ptr %1, ptr %2) #0 align 2 {
  %4 = alloca i1, align 1
  %5 = alloca %"class.clang::DependentSizedExtVectorTypeLoc", align 8
  %6 = alloca ptr, align 8
  %7 = alloca %"class.clang::DependentSizedExtVectorTypeLoc", align 8
  %8 = alloca %"class.clang::QualType", align 8
  %9 = alloca %"class.clang::DependentSizedExtVectorTypeLoc", align 8
  %10 = getelementptr inbounds nuw { ptr, ptr }, ptr %5, i32 0, i32 0
  store ptr %1, ptr %10, align 8
  %11 = getelementptr inbounds nuw { ptr, ptr }, ptr %5, i32 0, i32 1
  store ptr %2, ptr %11, align 8
  store ptr %0, ptr %6, align 8
  %12 = load ptr, ptr %6, align 8
  %13 = call noundef nonnull align 8 dereferenceable(48) ptr @_ZN5clang19RecursiveASTVisitorIN12_GLOBAL__N_110APICheckerEE10getDerivedEv(ptr noundef nonnull align 1 dereferenceable(1) %12)
  %14 = call noundef zeroext i1 @_ZNK5clang19RecursiveASTVisitorIN12_GLOBAL__N_110APICheckerEE23shouldTraversePostOrderEv(ptr noundef nonnull align 1 dereferenceable(1) %13)
  br i1 %14, label %37, label %15

15:                                               ; preds = %3
  br label %16

16:                                               ; preds = %15
  %17 = call noundef nonnull align 8 dereferenceable(48) ptr @_ZN5clang19RecursiveASTVisitorIN12_GLOBAL__N_110APICheckerEE10getDerivedEv(ptr noundef nonnull align 1 dereferenceable(1) %12)
  call void @llvm.memcpy.p0.p0.i64(ptr align 8 %7, ptr align 8 %5, i64 16, i1 false)
  %18 = getelementptr inbounds nuw { ptr, ptr }, ptr %7, i32 0, i32 0
  %19 = load ptr, ptr %18, align 8
  %20 = getelementptr inbounds nuw { ptr, ptr }, ptr %7, i32 0, i32 1
  %21 = load ptr, ptr %20, align 8
  %22 = call noundef zeroext i1 @_ZN5clang19RecursiveASTVisitorIN12_GLOBAL__N_110APICheckerEE40WalkUpFromDependentSizedExtVectorTypeLocENS_30DependentSizedExtVectorTypeLocE(ptr noundef nonnull align 1 dereferenceable(1) %17, ptr %19, ptr %21)
  br i1 %22, label %24, label %23

23:                                               ; preds = %16
  store i1 false, ptr %4, align 1
  br label %91

24:                                               ; preds = %16
  br label %25

25:                                               ; preds = %24
  %26 = call noundef nonnull align 8 dereferenceable(48) ptr @_ZN5clang19RecursiveASTVisitorIN12_GLOBAL__N_110APICheckerEE10getDerivedEv(ptr noundef nonnull align 1 dereferenceable(1) %12)
  %27 = call noundef zeroext i1 @_ZNK5clang19RecursiveASTVisitorIN12_GLOBAL__N_110APICheckerEE25shouldWalkTypesOfTypeLocsEv(ptr noundef nonnull align 1 dereferenceable(1) %26)
  br i1 %27, label %28, label %36

28:                                               ; preds = %25
  br label %29

29:                                               ; preds = %28
  %30 = call noundef nonnull align 8 dereferenceable(48) ptr @_ZN5clang19RecursiveASTVisitorIN12_GLOBAL__N_110APICheckerEE10getDerivedEv(ptr noundef nonnull align 1 dereferenceable(1) %12)
  %31 = call noundef ptr @_ZNK5clang15ConcreteTypeLocINS_13UnqualTypeLocENS_30DependentSizedExtVectorTypeLocENS_27DependentSizedExtVectorTypeENS_17VectorTypeLocInfoEE10getTypePtrEv(ptr noundef nonnull align 8 dereferenceable(16) %5)
  %32 = call noundef zeroext i1 @_ZN5clang19RecursiveASTVisitorIN12_GLOBAL__N_110APICheckerEE37WalkUpFromDependentSizedExtVectorTypeEPNS_27DependentSizedExtVectorTypeE(ptr noundef nonnull align 1 dereferenceable(1) %30, ptr noundef %31)
  br i1 %32, label %34, label %33

33:                                               ; preds = %29
  store i1 false, ptr %4, align 1
  br label %91

34:                                               ; preds = %29
  br label %35

35:                                               ; preds = %34
  br label %36

36:                                               ; preds = %35, %25
  br label %37

37:                                               ; preds = %36, %3
  %38 = call noundef ptr @_ZNK5clang15ConcreteTypeLocINS_13UnqualTypeLocENS_30DependentSizedExtVectorTypeLocENS_27DependentSizedExtVectorTypeENS_17VectorTypeLocInfoEE10getTypePtrEv(ptr noundef nonnull align 8 dereferenceable(16) %5)
  %39 = call noundef ptr @_ZNK5clang27DependentSizedExtVectorType11getSizeExprEv(ptr noundef nonnull align 16 dereferenceable(52) %38)
  %40 = icmp ne ptr %39, null
  br i1 %40, label %41, label %50

41:                                               ; preds = %37
  br label %42

42:                                               ; preds = %41
  %43 = call noundef nonnull align 8 dereferenceable(48) ptr @_ZN5clang19RecursiveASTVisitorIN12_GLOBAL__N_110APICheckerEE10getDerivedEv(ptr noundef nonnull align 1 dereferenceable(1) %12)
  %44 = call noundef ptr @_ZNK5clang15ConcreteTypeLocINS_13UnqualTypeLocENS_30DependentSizedExtVectorTypeLocENS_27DependentSizedExtVectorTypeENS_17VectorTypeLocInfoEE10getTypePtrEv(ptr noundef nonnull align 8 dereferenceable(16) %5)
  %45 = call noundef ptr @_ZNK5clang27DependentSizedExtVectorType11getSizeExprEv(ptr noundef nonnull align 16 dereferenceable(52) %44)
  %46 = call noundef zeroext i1 @_ZN5clang19RecursiveASTVisitorIN12_GLOBAL__N_110APICheckerEE12TraverseStmtEPNS_4StmtEPN4llvm15SmallVectorImplINS6_14PointerIntPairIS5_Lj1EbNS6_21PointerLikeTypeTraitsIS5_EENS6_18PointerIntPairInfoIS5_Lj1ESA_EEEEEE(ptr noundef nonnull align 1 dereferenceable(1) %43, ptr noundef %45, ptr noundef null)
  br i1 %46, label %48, label %47

47:                                               ; preds = %42
  store i1 false, ptr %4, align 1
  br label %91

48:                                               ; preds = %42
  br label %49

49:                                               ; preds = %48
  br label %50

50:                                               ; preds = %49, %37
  br label %51

51:                                               ; preds = %50
  %52 = call noundef nonnull align 8 dereferenceable(48) ptr @_ZN5clang19RecursiveASTVisitorIN12_GLOBAL__N_110APICheckerEE10getDerivedEv(ptr noundef nonnull align 1 dereferenceable(1) %12)
  %53 = call noundef ptr @_ZNK5clang15ConcreteTypeLocINS_13UnqualTypeLocENS_30DependentSizedExtVectorTypeLocENS_27DependentSizedExtVectorTypeENS_17VectorTypeLocInfoEE10getTypePtrEv(ptr noundef nonnull align 8 dereferenceable(16) %5)
  %54 = call i64 @_ZNK5clang27DependentSizedExtVectorType14getElementTypeEv(ptr noundef nonnull align 16 dereferenceable(52) %53)
  %55 = getelementptr inbounds nuw %"class.clang::QualType", ptr %8, i32 0, i32 0
  %56 = getelementptr inbounds nuw %"class.llvm::PointerIntPair.135", ptr %55, i32 0, i32 0
  %57 = getelementptr inbounds nuw %"struct.llvm::detail::PunnedPointer.136", ptr %56, i32 0, i32 0
  store i64 %54, ptr %57, align 8
  %58 = getelementptr inbounds nuw %"class.clang::QualType", ptr %8, i32 0, i32 0
  %59 = getelementptr inbounds nuw %"class.llvm::PointerIntPair.135", ptr %58, i32 0, i32 0
  %60 = getelementptr inbounds nuw %"struct.llvm::detail::PunnedPointer.136", ptr %59, i32 0, i32 0
  %61 = load i64, ptr %60, align 8
  %62 = call noundef zeroext i1 @_ZN5clang19RecursiveASTVisitorIN12_GLOBAL__N_110APICheckerEE12TraverseTypeENS_8QualTypeE(ptr noundef nonnull align 1 dereferenceable(1) %52, i64 %61)
  br i1 %62, label %64, label %63

63:                                               ; preds = %51
  store i1 false, ptr %4, align 1
  br label %91

64:                                               ; preds = %51
  br label %65

65:                                               ; preds = %64
  %66 = call noundef nonnull align 8 dereferenceable(48) ptr @_ZN5clang19RecursiveASTVisitorIN12_GLOBAL__N_110APICheckerEE10getDerivedEv(ptr noundef nonnull align 1 dereferenceable(1) %12)
  %67 = call noundef zeroext i1 @_ZNK5clang19RecursiveASTVisitorIN12_GLOBAL__N_110APICheckerEE23shouldTraversePostOrderEv(ptr noundef nonnull align 1 dereferenceable(1) %66)
  br i1 %67, label %68, label %90

68:                                               ; preds = %65
  br label %69

69:                                               ; preds = %68
  %70 = call noundef nonnull align 8 dereferenceable(48) ptr @_ZN5clang19RecursiveASTVisitorIN12_GLOBAL__N_110APICheckerEE10getDerivedEv(ptr noundef nonnull align 1 dereferenceable(1) %12)
  call void @llvm.memcpy.p0.p0.i64(ptr align 8 %9, ptr align 8 %5, i64 16, i1 false)
  %71 = getelementptr inbounds nuw { ptr, ptr }, ptr %9, i32 0, i32 0
  %72 = load ptr, ptr %71, align 8
  %73 = getelementptr inbounds nuw { ptr, ptr }, ptr %9, i32 0, i32 1
  %74 = load ptr, ptr %73, align 8
  %75 = call noundef zeroext i1 @_ZN5clang19RecursiveASTVisitorIN12_GLOBAL__N_110APICheckerEE40WalkUpFromDependentSizedExtVectorTypeLocENS_30DependentSizedExtVectorTypeLocE(ptr noundef nonnull align 1 dereferenceable(1) %70, ptr %72, ptr %74)
  br i1 %75, label %77, label %76

76:                                               ; preds = %69
  store i1 false, ptr %4, align 1
  br label %91

77:                                               ; preds = %69
  br label %78

78:                                               ; preds = %77
  %79 = call noundef nonnull align 8 dereferenceable(48) ptr @_ZN5clang19RecursiveASTVisitorIN12_GLOBAL__N_110APICheckerEE10getDerivedEv(ptr noundef nonnull align 1 dereferenceable(1) %12)
  %80 = call noundef zeroext i1 @_ZNK5clang19RecursiveASTVisitorIN12_GLOBAL__N_110APICheckerEE25shouldWalkTypesOfTypeLocsEv(ptr noundef nonnull align 1 dereferenceable(1) %79)
  br i1 %80, label %81, label %89

81:                                               ; preds = %78
  br label %82

82:                                               ; preds = %81
  %83 = call noundef nonnull align 8 dereferenceable(48) ptr @_ZN5clang19RecursiveASTVisitorIN12_GLOBAL__N_110APICheckerEE10getDerivedEv(ptr noundef nonnull align 1 dereferenceable(1) %12)
  %84 = call noundef ptr @_ZNK5clang15ConcreteTypeLocINS_13UnqualTypeLocENS_30DependentSizedExtVectorTypeLocENS_27DependentSizedExtVectorTypeENS_17VectorTypeLocInfoEE10getTypePtrEv(ptr noundef nonnull align 8 dereferenceable(16) %5)
  %85 = call noundef zeroext i1 @_ZN5clang19RecursiveASTVisitorIN12_GLOBAL__N_110APICheckerEE37WalkUpFromDependentSizedExtVectorTypeEPNS_27DependentSizedExtVectorTypeE(ptr noundef nonnull align 1 dereferenceable(1) %83, ptr noundef %84)
  br i1 %85, label %87, label %86

86:                                               ; preds = %82
  store i1 false, ptr %4, align 1
  br label %91

87:                                               ; preds = %82
  br label %88

88:                                               ; preds = %87
  br label %89

89:                                               ; preds = %88, %78
  br label %90

90:                                               ; preds = %89, %65
  store i1 true, ptr %4, align 1
  br label %91

91:                                               ; preds = %90, %86, %76, %63, %47, %33, %23
  %92 = load i1, ptr %4, align 1
  ret i1 %92
}